target datalayout = "e-m:e-p270:32:32-p271:32:32-p272:64:64-i64:64-i128:128-f80:128-n8:16:32:64-S128"
target triple = "x86_64-pc-linux-gnu"

%struct.darktable_t = type { %struct.dt_codepath_t, i32, i32, ptr, ptr, ptr, ptr, ptr, ptr, ptr, ptr, ptr, ptr, ptr, ptr, ptr, ptr, ptr, ptr, ptr, ptr, ptr, ptr, ptr, ptr, ptr, ptr, ptr, ptr, ptr, [64 x %struct.dt_pthread_mutex_t], %struct.dt_pthread_mutex_t, %struct.dt_pthread_mutex_t, %struct.dt_pthread_mutex_t, %struct.dt_pthread_mutex_t, %struct.dt_pthread_mutex_t, ptr, ptr, ptr, ptr, ptr, ptr, ptr, ptr, ptr, ptr, ptr, ptr, ptr, %struct.dt_lua_state_t, ptr, double, ptr, i32, [47 x i32], i32, i32, ptr, ptr, %struct.dt_sys_resources_t, %struct.dt_backthumb_t, %struct.dt_gimp_t }
%struct.dt_codepath_t = type { i8, [3 x i8] }
%struct.dt_pthread_mutex_t = type { %union.pthread_mutex_t }
%union.pthread_mutex_t = type { %struct.__pthread_mutex_s }
%struct.__pthread_mutex_s = type { i32, i32, i32, i32, i32, i16, i16, %struct.__pthread_internal_list }
%struct.__pthread_internal_list = type { ptr, ptr }
%struct.dt_lua_state_t = type { i32 }
%struct.dt_sys_resources_t = type { i64, i64, ptr, ptr, i32 }
%struct.dt_backthumb_t = type { double, double, i32, i32, i32, i32 }
%struct.dt_gimp_t = type { i32, ptr, ptr, i32, i32 }

@darktable = external global %struct.darktable_t, align 8
@.str.43 = private unnamed_addr constant [115 x i8] c"generated/home/dtcxzyw/WorkSpace/Projects/compilers/llvm-opt-benchmark/bench/darktable/darktable/src/gui/presets.c\00", align 1
@stderr = external global ptr, align 8
@.str.45 = private unnamed_addr constant [53 x i8] c"sqlite3 error: %s:%d, function %s(), query \22%s\22: %s\0A\00", align 1
@.str.46 = private unnamed_addr constant [41 x i8] c"[sql] %s:%d, function %s(): prepare \22%s\22\00", align 1
@__FUNCTION__.dt_gui_presets_add_with_blendop = private unnamed_addr constant [32 x i8] c"dt_gui_presets_add_with_blendop\00", align 1
@.str.48 = private unnamed_addr constant [41 x i8] c"sqlite3 error: %s:%d, function %s(): %s\0A\00", align 1

; Function Attrs: nounwind uwtable
define void @dt_gui_presets_add_with_blendop(ptr noundef %0, ptr noundef %1, i32 noundef %2, ptr noundef %3, i32 noundef %4, ptr noundef %5, i32 noundef %6) #0 {
  %8 = alloca ptr, align 8
  %9 = alloca ptr, align 8
  %10 = alloca i32, align 4
  %11 = alloca ptr, align 8
  %12 = alloca i32, align 4
  %13 = alloca ptr, align 8
  %14 = alloca i32, align 4
  %15 = alloca ptr, align 8
  %16 = alloca i32, align 4
  %17 = alloca i32, align 4
  %18 = alloca i32, align 4
  %19 = alloca i32, align 4
  %20 = alloca i32, align 4
  %21 = alloca i32, align 4
  %22 = alloca i32, align 4
  %23 = alloca i32, align 4
  store ptr %0, ptr %8, align 8, !tbaa !11
  store ptr %1, ptr %9, align 8, !tbaa !11
  store i32 %2, ptr %10, align 4, !tbaa !13
  store ptr %3, ptr %11, align 8, !tbaa !17
  store i32 %4, ptr %12, align 4, !tbaa !13
  store ptr %5, ptr %13, align 8, !tbaa !17
  store i32 %6, ptr %14, align 4, !tbaa !13
  call void @llvm.lifetime.start.p0(i64 8, ptr %15) #11
  br label %24

24:                                               ; preds = %7
  br label %25

25:                                               ; preds = %24
  %26 = load i32, ptr getelementptr inbounds nuw (%struct.darktable_t, ptr @darktable, i32 0, i32 2), align 8, !tbaa !23
  %27 = and i32 256, %26
  %28 = icmp ne i32 %27, 0
  br i1 %28, label %29, label %35

29:                                               ; preds = %25
  %30 = load i32, ptr getelementptr inbounds nuw (%struct.darktable_t, ptr @darktable, i32 0, i32 2), align 8, !tbaa !23
  %31 = xor i32 %30, -1
  %32 = and i32 0, %31
  %33 = icmp ne i32 %32, 0
  br i1 %33, label %35, label %34

34:                                               ; preds = %29
  call void (ptr, ...) @dt_print_ext(ptr noundef @.str.46, ptr noundef @.str.43, i32 noundef 131, ptr noundef @__FUNCTION__.dt_gui_presets_add_with_blendop, ptr noundef @.str.47)
  br label %35

35:                                               ; preds = %34, %29, %25
  br label %36

36:                                               ; preds = %35
  br label %37

37:                                               ; preds = %36
  call void @llvm.lifetime.start.p0(i64 4, ptr %16) #11
  %38 = load ptr, ptr getelementptr inbounds nuw (%struct.darktable_t, ptr @darktable, i32 0, i32 18), align 8, !tbaa !59
  %39 = call ptr @dt_database_get(ptr noundef %38)
  %40 = call i32 @sqlite3_prepare_v2(ptr noundef %39, ptr noundef @.str.47, i32 noundef -1, ptr noundef %15, ptr noundef null)
  store i32 %40, ptr %16, align 4, !tbaa !13
  %41 = load i32, ptr %16, align 4, !tbaa !13
  %42 = icmp ne i32 %41, 0
  br i1 %42, label %43, label %49

43:                                               ; preds = %37
  %44 = load ptr, ptr @stderr, align 8, !tbaa !60
  %45 = load ptr, ptr getelementptr inbounds nuw (%struct.darktable_t, ptr @darktable, i32 0, i32 18), align 8, !tbaa !59
  %46 = call ptr @dt_database_get(ptr noundef %45)
  %47 = call ptr @sqlite3_errmsg(ptr noundef %46)
  %48 = call i32 (ptr, ptr, ...) @fprintf(ptr noundef %44, ptr noundef @.str.45, ptr noundef @.str.43, i32 noundef 131, ptr noundef @__FUNCTION__.dt_gui_presets_add_with_blendop, ptr noundef @.str.47, ptr noundef %47) #11
  br label %49

49:                                               ; preds = %43, %37
  call void @llvm.lifetime.end.p0(i64 4, ptr %16) #11
  br label %50

50:                                               ; preds = %49
  br label %51

51:                                               ; preds = %50
  call void @llvm.lifetime.start.p0(i64 4, ptr %17) #11
  %52 = load ptr, ptr %15, align 8, !tbaa !62
  %53 = load ptr, ptr %8, align 8, !tbaa !11
  %54 = call i32 @sqlite3_bind_text(ptr noundef %52, i32 noundef 1, ptr noundef %53, i32 noundef -1, ptr noundef inttoptr (i64 -1 to ptr))
  store i32 %54, ptr %17, align 4, !tbaa !13
  %55 = load i32, ptr %17, align 4, !tbaa !13
  %56 = icmp ne i32 %55, 0
  br i1 %56, label %57, label %63

57:                                               ; preds = %51
  %58 = load ptr, ptr @stderr, align 8, !tbaa !60
  %59 = load ptr, ptr getelementptr inbounds nuw (%struct.darktable_t, ptr @darktable, i32 0, i32 18), align 8, !tbaa !59
  %60 = call ptr @dt_database_get(ptr noundef %59)
  %61 = call ptr @sqlite3_errmsg(ptr noundef %60)
  %62 = call i32 (ptr, ptr, ...) @fprintf(ptr noundef %58, ptr noundef @.str.48, ptr noundef @.str.43, i32 noundef 133, ptr noundef @__FUNCTION__.dt_gui_presets_add_with_blendop, ptr noundef %61) #11
  br label %63

63:                                               ; preds = %57, %51
  call void @llvm.lifetime.end.p0(i64 4, ptr %17) #11
  call void @llvm.lifetime.start.p0(i64 4, ptr %18) #11
  %64 = load ptr, ptr %15, align 8, !tbaa !62
  %65 = load ptr, ptr %9, align 8, !tbaa !11
  %66 = call i32 @sqlite3_bind_text(ptr noundef %64, i32 noundef 2, ptr noundef %65, i32 noundef -1, ptr noundef inttoptr (i64 -1 to ptr))
  store i32 %66, ptr %18, align 4, !tbaa !13
  %67 = load i32, ptr %18, align 4, !tbaa !13
  %68 = icmp ne i32 %67, 0
  br i1 %68, label %69, label %75

69:                                               ; preds = %63
  %70 = load ptr, ptr @stderr, align 8, !tbaa !60
  %71 = load ptr, ptr getelementptr inbounds nuw (%struct.darktable_t, ptr @darktable, i32 0, i32 18), align 8, !tbaa !59
  %72 = call ptr @dt_database_get(ptr noundef %71)
  %73 = call ptr @sqlite3_errmsg(ptr noundef %72)
  %74 = call i32 (ptr, ptr, ...) @fprintf(ptr noundef %70, ptr noundef @.str.48, ptr noundef @.str.43, i32 noundef 134, ptr noundef @__FUNCTION__.dt_gui_presets_add_with_blendop, ptr noundef %73) #11
  br label %75

75:                                               ; preds = %69, %63
  call void @llvm.lifetime.end.p0(i64 4, ptr %18) #11
  call void @llvm.lifetime.start.p0(i64 4, ptr %19) #11
  %76 = load ptr, ptr %15, align 8, !tbaa !62
  %77 = load i32, ptr %10, align 4, !tbaa !13
  %78 = call i32 @sqlite3_bind_int(ptr noundef %76, i32 noundef 3, i32 noundef %77)
  store i32 %78, ptr %19, align 4, !tbaa !13
  %79 = load i32, ptr %19, align 4, !tbaa !13
  %80 = icmp ne i32 %79, 0
  br i1 %80, label %81, label %87

81:                                               ; preds = %75
  %82 = load ptr, ptr @stderr, align 8, !tbaa !60
  %83 = load ptr, ptr getelementptr inbounds nuw (%struct.darktable_t, ptr @darktable, i32 0, i32 18), align 8, !tbaa !59
  %84 = call ptr @dt_database_get(ptr noundef %83)
  %85 = call ptr @sqlite3_errmsg(ptr noundef %84)
  %86 = call i32 (ptr, ptr, ...) @fprintf(ptr noundef %82, ptr noundef @.str.48, ptr noundef @.str.43, i32 noundef 135, ptr noundef @__FUNCTION__.dt_gui_presets_add_with_blendop, ptr noundef %85) #11
  br label %87

87:                                               ; preds = %81, %75
  call void @llvm.lifetime.end.p0(i64 4, ptr %19) #11
  call void @llvm.lifetime.start.p0(i64 4, ptr %20) #11
  %88 = load ptr, ptr %15, align 8, !tbaa !62
  %89 = load ptr, ptr %11, align 8, !tbaa !17
  %90 = load i32, ptr %12, align 4, !tbaa !13
  %91 = call i32 @sqlite3_bind_blob(ptr noundef %88, i32 noundef 4, ptr noundef %89, i32 noundef %90, ptr noundef inttoptr (i64 -1 to ptr))
  store i32 %91, ptr %20, align 4, !tbaa !13
  %92 = load i32, ptr %20, align 4, !tbaa !13
  %93 = icmp ne i32 %92, 0
  br i1 %93, label %94, label %100

94:                                               ; preds = %87
  %95 = load ptr, ptr @stderr, align 8, !tbaa !60
  %96 = load ptr, ptr getelementptr inbounds nuw (%struct.darktable_t, ptr @darktable, i32 0, i32 18), align 8, !tbaa !59
  %97 = call ptr @dt_database_get(ptr noundef %96)
  %98 = call ptr @sqlite3_errmsg(ptr noundef %97)
  %99 = call i32 (ptr, ptr, ...) @fprintf(ptr noundef %95, ptr noundef @.str.48, ptr noundef @.str.43, i32 noundef 136, ptr noundef @__FUNCTION__.dt_gui_presets_add_with_blendop, ptr noundef %98) #11
  br label %100

100:                                              ; preds = %94, %87
  call void @llvm.lifetime.end.p0(i64 4, ptr %20) #11
  call void @llvm.lifetime.start.p0(i64 4, ptr %21) #11
  %101 = load ptr, ptr %15, align 8, !tbaa !62
  %102 = load i32, ptr %14, align 4, !tbaa !13
  %103 = call i32 @sqlite3_bind_int(ptr noundef %101, i32 noundef 5, i32 noundef %102)
  store i32 %103, ptr %21, align 4, !tbaa !13
  %104 = load i32, ptr %21, align 4, !tbaa !13
  %105 = icmp ne i32 %104, 0
  br i1 %105, label %106, label %112

106:                                              ; preds = %100
  %107 = load ptr, ptr @stderr, align 8, !tbaa !60
  %108 = load ptr, ptr getelementptr inbounds nuw (%struct.darktable_t, ptr @darktable, i32 0, i32 18), align 8, !tbaa !59
  %109 = call ptr @dt_database_get(ptr noundef %108)
  %110 = call ptr @sqlite3_errmsg(ptr noundef %109)
  %111 = call i32 (ptr, ptr, ...) @fprintf(ptr noundef %107, ptr noundef @.str.48, ptr noundef @.str.43, i32 noundef 137, ptr noundef @__FUNCTION__.dt_gui_presets_add_with_blendop, ptr noundef %110) #11
  br label %112

112:                                              ; preds = %106, %100
  call void @llvm.lifetime.end.p0(i64 4, ptr %21) #11
  call void @llvm.lifetime.start.p0(i64 4, ptr %22) #11
  %113 = load ptr, ptr %15, align 8, !tbaa !62
  %114 = load ptr, ptr %13, align 8, !tbaa !17
  %115 = call i32 @sqlite3_bind_blob(ptr noundef %113, i32 noundef 6, ptr noundef %114, i32 noundef 420, ptr noundef inttoptr (i64 -1 to ptr))
  store i32 %115, ptr %22, align 4, !tbaa !13
  %116 = load i32, ptr %22, align 4, !tbaa !13
  %117 = icmp ne i32 %116, 0
  br i1 %117, label %118, label %124

118:                                              ; preds = %112
  %119 = load ptr, ptr @stderr, align 8, !tbaa !60
  %120 = load ptr, ptr getelementptr inbounds nuw (%struct.darktable_t, ptr @darktable, i32 0, i32 18), align 8, !tbaa !59
  %121 = call ptr @dt_database_get(ptr noundef %120)
  %122 = call ptr @sqlite3_errmsg(ptr noundef %121)
  %123 = call i32 (ptr, ptr, ...) @fprintf(ptr noundef %119, ptr noundef @.str.48, ptr noundef @.str.43, i32 noundef 139, ptr noundef @__FUNCTION__.dt_gui_presets_add_with_blendop, ptr noundef %122) #11
  br label %124

124:                                              ; preds = %118, %112
  call void @llvm.lifetime.end.p0(i64 4, ptr %22) #11
  call void @llvm.lifetime.start.p0(i64 4, ptr %23) #11
  %125 = load ptr, ptr %15, align 8, !tbaa !62
  %126 = call i32 @dt_develop_blend_version()
  %127 = call i32 @sqlite3_bind_int(ptr noundef %125, i32 noundef 7, i32 noundef %126)
  store i32 %127, ptr %23, align 4, !tbaa !13
  %128 = load i32, ptr %23, align 4, !tbaa !13
  %129 = icmp ne i32 %128, 0
  br i1 %129, label %130, label %136

130:                                              ; preds = %124
  %131 = load ptr, ptr @stderr, align 8, !tbaa !60
  %132 = load ptr, ptr getelementptr inbounds nuw (%struct.darktable_t, ptr @darktable, i32 0, i32 18), align 8, !tbaa !59
  %133 = call ptr @dt_database_get(ptr noundef %132)
  %134 = call ptr @sqlite3_errmsg(ptr noundef %133)
  %135 = call i32 (ptr, ptr, ...) @fprintf(ptr noundef %131, ptr noundef @.str.48, ptr noundef @.str.43, i32 noundef 140, ptr noundef @__FUNCTION__.dt_gui_presets_add_with_blendop, ptr noundef %134) #11
  br label %136

136:                                              ; preds = %130, %124
  call void @llvm.lifetime.end.p0(i64 4, ptr %23) #11
  %137 = load ptr, ptr %15, align 8, !tbaa !62
  %138 = call i32 @sqlite3_step(ptr noundef %137)
  %139 = load ptr, ptr %15, align 8, !tbaa !62
  %140 = call i32 @sqlite3_finalize(ptr noundef %139)
  call void @llvm.lifetime.end.p0(i64 8, ptr %15) #11
  ret void
}