; Function Attrs: nounwind uwtable
define void @dt_gui_presets_add_with_blendop(ptr noundef %0, ptr noundef %1, i32 noundef %2, ptr noundef %3, i32 noundef %4, ptr noundef %5, i32 noundef %6) local_unnamed_addr #0 {
  %8 = alloca ptr, align 8
  call void @llvm.lifetime.start.p0(i64 8, ptr nonnull %8) #16
  %9 = load i32, ptr getelementptr inbounds nuw (i8, ptr @darktable, i64 8), align 8, !tbaa !14
  %10 = and i32 %9, 256
  %.not = icmp eq i32 %10, 0
  br i1 %.not, label %12, label %11

11:                                               ; preds = %7
  tail call void (ptr, ...) @dt_print_ext(ptr noundef nonnull @.str.46, ptr noundef nonnull @.str.43, i32 noundef 131, ptr noundef nonnull @__FUNCTION__.dt_gui_presets_add_with_blendop, ptr noundef nonnull @.str.47) #16
  br label %12

12:                                               ; preds = %11, %7
  %13 = load ptr, ptr getelementptr inbounds nuw (i8, ptr @darktable, i64 136), align 8, !tbaa !53
  %14 = tail call ptr @dt_database_get(ptr noundef %13) #16
  %15 = call i32 @sqlite3_prepare_v2(ptr noundef %14, ptr noundef nonnull @.str.47, i32 noundef -1, ptr noundef nonnull %8, ptr noundef null) #16
  %.not14 = icmp eq i32 %15, 0
  br i1 %.not14, label %22, label %16

16:                                               ; preds = %12
  %17 = load ptr, ptr @stderr, align 8, !tbaa !54
  %18 = load ptr, ptr getelementptr inbounds nuw (i8, ptr @darktable, i64 136), align 8, !tbaa !53
  %19 = call ptr @dt_database_get(ptr noundef %18) #16
  %20 = call ptr @sqlite3_errmsg(ptr noundef %19) #16
  %21 = call i32 (ptr, ptr, ...) @fprintf(ptr noundef %17, ptr noundef nonnull @.str.45, ptr noundef nonnull @.str.43, i32 noundef 131, ptr noundef nonnull @__FUNCTION__.dt_gui_presets_add_with_blendop, ptr noundef nonnull @.str.47, ptr noundef %20) #17
  br label %22

22:                                               ; preds = %16, %12
  %23 = load ptr, ptr %8, align 8, !tbaa !56
  %24 = call i32 @sqlite3_bind_text(ptr noundef %23, i32 noundef 1, ptr noundef %0, i32 noundef -1, ptr noundef nonnull inttoptr (i64 -1 to ptr)) #16
  %.not15 = icmp eq i32 %24, 0
  br i1 %.not15, label %31, label %25

25:                                               ; preds = %22
  %26 = load ptr, ptr @stderr, align 8, !tbaa !54
  %27 = load ptr, ptr getelementptr inbounds nuw (i8, ptr @darktable, i64 136), align 8, !tbaa !53
  %28 = call ptr @dt_database_get(ptr noundef %27) #16
  %29 = call ptr @sqlite3_errmsg(ptr noundef %28) #16
  %30 = call i32 (ptr, ptr, ...) @fprintf(ptr noundef %26, ptr noundef nonnull @.str.48, ptr noundef nonnull @.str.43, i32 noundef 133, ptr noundef nonnull @__FUNCTION__.dt_gui_presets_add_with_blendop, ptr noundef %29) #17
  br label %31

31:                                               ; preds = %25, %22
  %32 = load ptr, ptr %8, align 8, !tbaa !56
  %33 = call i32 @sqlite3_bind_text(ptr noundef %32, i32 noundef 2, ptr noundef %1, i32 noundef -1, ptr noundef nonnull inttoptr (i64 -1 to ptr)) #16
  %.not16 = icmp eq i32 %33, 0
  br i1 %.not16, label %40, label %34

34:                                               ; preds = %31
  %35 = load ptr, ptr @stderr, align 8, !tbaa !54
  %36 = load ptr, ptr getelementptr inbounds nuw (i8, ptr @darktable, i64 136), align 8, !tbaa !53
  %37 = call ptr @dt_database_get(ptr noundef %36) #16
  %38 = call ptr @sqlite3_errmsg(ptr noundef %37) #16
  %39 = call i32 (ptr, ptr, ...) @fprintf(ptr noundef %35, ptr noundef nonnull @.str.48, ptr noundef nonnull @.str.43, i32 noundef 134, ptr noundef nonnull @__FUNCTION__.dt_gui_presets_add_with_blendop, ptr noundef %38) #17
  br label %40

40:                                               ; preds = %34, %31
  %41 = load ptr, ptr %8, align 8, !tbaa !56
  %42 = call i32 @sqlite3_bind_int(ptr noundef %41, i32 noundef 3, i32 noundef %2) #16
  %.not17 = icmp eq i32 %42, 0
  br i1 %.not17, label %49, label %43

43:                                               ; preds = %40
  %44 = load ptr, ptr @stderr, align 8, !tbaa !54
  %45 = load ptr, ptr getelementptr inbounds nuw (i8, ptr @darktable, i64 136), align 8, !tbaa !53
  %46 = call ptr @dt_database_get(ptr noundef %45) #16
  %47 = call ptr @sqlite3_errmsg(ptr noundef %46) #16
  %48 = call i32 (ptr, ptr, ...) @fprintf(ptr noundef %44, ptr noundef nonnull @.str.48, ptr noundef nonnull @.str.43, i32 noundef 135, ptr noundef nonnull @__FUNCTION__.dt_gui_presets_add_with_blendop, ptr noundef %47) #17
  br label %49

49:                                               ; preds = %43, %40
  %50 = load ptr, ptr %8, align 8, !tbaa !56
  %51 = call i32 @sqlite3_bind_blob(ptr noundef %50, i32 noundef 4, ptr noundef %3, i32 noundef %4, ptr noundef nonnull inttoptr (i64 -1 to ptr)) #16
  %.not18 = icmp eq i32 %51, 0
  br i1 %.not18, label %58, label %52

52:                                               ; preds = %49
  %53 = load ptr, ptr @stderr, align 8, !tbaa !54
  %54 = load ptr, ptr getelementptr inbounds nuw (i8, ptr @darktable, i64 136), align 8, !tbaa !53
  %55 = call ptr @dt_database_get(ptr noundef %54) #16
  %56 = call ptr @sqlite3_errmsg(ptr noundef %55) #16
  %57 = call i32 (ptr, ptr, ...) @fprintf(ptr noundef %53, ptr noundef nonnull @.str.48, ptr noundef nonnull @.str.43, i32 noundef 136, ptr noundef nonnull @__FUNCTION__.dt_gui_presets_add_with_blendop, ptr noundef %56) #17
  br label %58

58:                                               ; preds = %52, %49
  %59 = load ptr, ptr %8, align 8, !tbaa !56
  %60 = call i32 @sqlite3_bind_int(ptr noundef %59, i32 noundef 5, i32 noundef %6) #16
  %.not19 = icmp eq i32 %60, 0
  br i1 %.not19, label %67, label %61

61:                                               ; preds = %58
  %62 = load ptr, ptr @stderr, align 8, !tbaa !54
  %63 = load ptr, ptr getelementptr inbounds nuw (i8, ptr @darktable, i64 136), align 8, !tbaa !53
  %64 = call ptr @dt_database_get(ptr noundef %63) #16
  %65 = call ptr @sqlite3_errmsg(ptr noundef %64) #16
  %66 = call i32 (ptr, ptr, ...) @fprintf(ptr noundef %62, ptr noundef nonnull @.str.48, ptr noundef nonnull @.str.43, i32 noundef 137, ptr noundef nonnull @__FUNCTION__.dt_gui_presets_add_with_blendop, ptr noundef %65) #17
  br label %67

67:                                               ; preds = %61, %58
  %68 = load ptr, ptr %8, align 8, !tbaa !56
  %69 = call i32 @sqlite3_bind_blob(ptr noundef %68, i32 noundef 6, ptr noundef %5, i32 noundef 420, ptr noundef nonnull inttoptr (i64 -1 to ptr)) #16
  %.not20 = icmp eq i32 %69, 0
  br i1 %.not20, label %76, label %70

70:                                               ; preds = %67
  %71 = load ptr, ptr @stderr, align 8, !tbaa !54
  %72 = load ptr, ptr getelementptr inbounds nuw (i8, ptr @darktable, i64 136), align 8, !tbaa !53
  %73 = call ptr @dt_database_get(ptr noundef %72) #16
  %74 = call ptr @sqlite3_errmsg(ptr noundef %73) #16
  %75 = call i32 (ptr, ptr, ...) @fprintf(ptr noundef %71, ptr noundef nonnull @.str.48, ptr noundef nonnull @.str.43, i32 noundef 139, ptr noundef nonnull @__FUNCTION__.dt_gui_presets_add_with_blendop, ptr noundef %74) #17
  br label %76

76:                                               ; preds = %70, %67
  %77 = load ptr, ptr %8, align 8, !tbaa !56
  %78 = call i32 @dt_develop_blend_version() #16
  %79 = call i32 @sqlite3_bind_int(ptr noundef %77, i32 noundef 7, i32 noundef %78) #16
  %.not21 = icmp eq i32 %79, 0
  br i1 %.not21, label %86, label %80

80:                                               ; preds = %76
  %81 = load ptr, ptr @stderr, align 8, !tbaa !54
  %82 = load ptr, ptr getelementptr inbounds nuw (i8, ptr @darktable, i64 136), align 8, !tbaa !53
  %83 = call ptr @dt_database_get(ptr noundef %82) #16
  %84 = call ptr @sqlite3_errmsg(ptr noundef %83) #16
  %85 = call i32 (ptr, ptr, ...) @fprintf(ptr noundef %81, ptr noundef nonnull @.str.48, ptr noundef nonnull @.str.43, i32 noundef 140, ptr noundef nonnull @__FUNCTION__.dt_gui_presets_add_with_blendop, ptr noundef %84) #17
  br label %86

86:                                               ; preds = %80, %76
  %87 = load ptr, ptr %8, align 8, !tbaa !56
  %88 = call i32 @sqlite3_step(ptr noundef %87) #16
  %89 = load ptr, ptr %8, align 8, !tbaa !56
  %90 = call i32 @sqlite3_finalize(ptr noundef %89) #16
  call void @llvm.lifetime.end.p0(i64 8, ptr nonnull %8) #16
  ret void
}